(dp0
S'1'
p1
(lp2
(lp3
I4
aF3.1
aF2.8
aF2.5
aF2.2
aF2.0
aF1.9
aF1.75
aF1.6
aF1.5
aF1.35
aF1.3
aF1.25
aF1.2
aF1.15
aF1.1
aF1.05
aF1.0
aF0.95
aF0.9
aF0.85
aF0.8
aF0.75
aF0.7
aF0.65
aF0.6
aF0.55
aF0.5
aF0.45
aF0.4
aF0.35
aF0.25
aF0.2
aF0.15
aF0.1
aF0.05
aF0.0
aa(lp4
F1.5653765630627112
aF2.1031934843948874
aF2.3537762933734876
aF2.657551371158382
aF3.0313849282867316
aF3.3310493797510357
aF3.499429854966967
aF3.77926305836623
aF4.097143118864512
aF4.333730325440996
aF4.732065258627027
aF4.87795254969059
aF5.031116232331891
aF5.192041168142514
aF5.361250965874437
aF5.539311395626737
aF5.72683410698751
aF5.924480675664365
aF6.132967004986563
aF6.353068110967609
aF6.585623322660601
aF6.831541933750815
aF7.091809347341866
aF7.367493764619187
aF7.659753480810703
aF7.969844870417697
aF8.299131170530377
aF8.649092209515466
aF9.021335282919633
aF9.417607454926765
aF9.839809669779209
aF10.77047918106273
aF11.283682161745238
aF11.832339132347448
aF12.419445754566578
aF13.048322335932355
aF13.72267287581258
aa(lp5
cnumpy.core.multiarray
scalar
p6
(cnumpy
dtype
p7
(S'f8'
p8
I0
I1
tp9
Rp10
(I3
S'<'
p11
NNNI-1
I-1
I0
tp12
bS'F)\x88DV\x98eB'
p13
tp14
Rp15
ag6
(g10
S'3\xb5\x8c\x14FU\x8bB'
p16
tp17
Rp18
ag6
(g10
S'\xacj\x88\x1c\x11\x00\x96B'
p19
tp20
Rp21
ag6
(g10
S'\xa4\xec\xec\xb4`\xb1\xa0B'
p22
tp23
Rp24
ag6
(g10
S'\xec\xf9\xd1a^\x93\xa7B'
p25
tp26
Rp27
ag6
(g10
S"\x83\x1c'&\x01x\xacB"
p28
tp29
Rp30
ag6
(g10
S'\x07p(j\\\xee\xaeB'
p31
tp32
Rp33
ag6
(g10
S'\xcc\x10\x11AXP\xb1B'
p34
tp35
Rp36
ag6
(g10
S'\re\x89s\x942\xb3B'
p37
tp38
Rp39
ag6
(g10
S'H\xa0\xa8\xee\xce\x83\xb4B'
p40
tp41
Rp42
ag6
(g10
S'\xe6\x1d\xfc\xf3\xbd\xad\xb6B'
p43
tp44
Rp45
ag6
(g10
S'=\xfb\xb2h\xbcx\xb7B'
p46
tp47
Rp48
ag6
(g10
S'\x87{\x1f\x9a\x02O\xb8B'
p49
tp50
Rp51
ag6
(g10
S'\xd8d\x174y1\xb9B'
p52
tp53
Rp54
ag6
(g10
S'\xbfpm2\x9b \xbaB'
p55
tp56
Rp57
ag6
(g10
S' g\x85\xc8M\x1c\xbbB'
p58
tp59
Rp60
ag6
(g10
S'\x87\xde=X\xb9#\xbcB'
p61
tp62
Rp63
ag6
(g10
S'\x8fb\xa4\x15+5\xbdB'
p64
tp65
Rp66
ag6
(g10
S'(PnS\x0bN\xbeB'
p67
tp68
Rp69
ag6
(g10
S'\x1e[iZ\xf9j\xbfB'
p70
tp71
Rp72
ag6
(g10
S'\xe2a\x87\xf3\x10D\xc0B'
p73
tp74
Rp75
ag6
(g10
S'-b\xcan\xf3\xd0\xc0B'
p76
tp77
Rp78
ag6
(g10
S'\x05o\xaaX\xf5Z\xc1B'
p79
tp80
Rp81
ag6
(g10
S'i\x1bN\xe1B\xe2\xc1B'
p82
tp83
Rp84
ag6
(g10
S'\xc3:\xfcGKi\xc2B'
p85
tp86
Rp87
ag6
(g10
S'\x8b\t%^\xc0\xf5\xc2B'
p88
tp89
Rp90
ag6
(g10
S'\x88X*\xd0\x86\x91\xc3B'
p91
tp92
Rp93
ag6
(g10
S'\xbf\xe5\n.\\K\xc4B'
p94
tp95
Rp96
ag6
(g10
S'\xfaK\xc4#\xd36\xc5B'
p97
tp98
Rp99
ag6
(g10
S'[\x84\xafv\xf0j\xc6B'
p100
tp101
Rp102
ag6
(g10
S'\xd5w!B\xf9\xfd\xc7B'
p103
tp104
Rp105
ag6
(g10
S'\x19\x91\tX\xdbT\xccB'
p106
tp107
Rp108
ag6
(g10
S'P\xf9O\xb0\x82\xc7\xceB'
p109
tp110
Rp111
ag6
(g10
S'#\x99\xf2\xce\xa2r\xd0B'
p112
tp113
Rp114
ag6
(g10
S'\xb9\xbb\x00\xa3\xdcA\xd1B'
p115
tp116
Rp117
ag6
(g10
S'.)\xb5\x97\xc0\x9d\xd2B'
p118
tp119
Rp120
ag6
(g10
S'B\x92N\xcf\x89\xe0\xd8B'
p121
tp122
Rp123
aasS'51'
p124
(lp125
(lp126
I4
aF3.1
aF2.8
aF2.5
aF2.2
aF2.0
aF1.9
aF1.75
aF1.6
aF1.5
aF1.35
aF1.3
aF1.25
aF1.2
aF1.15
aF1.1
aF1.05
aF1.0
aF0.95
aF0.9
aF0.85
aF0.8
aF0.75
aF0.7
aF0.65
aF0.6
aF0.55
aF0.5
aF0.45
aF0.4
aF0.35
aF0.25
aF0.2
aF0.15
aF0.1
aF0.05
aF0.0
aa(lp127
F1.5653765630627112
aF2.1031934843948874
aF2.3537762933734876
aF2.657551371158382
aF3.0313849282867316
aF3.3310493797510357
aF3.499429854966967
aF3.77926305836623
aF4.097143118864512
aF4.333730325440996
aF4.732065258627027
aF4.87795254969059
aF5.031116232331891
aF5.192041168142514
aF5.361250965874437
aF5.539311395626737
aF5.72683410698751
aF5.924480675664365
aF6.132967004986563
aF6.353068110967609
aF6.585623322660601
aF6.831541933750815
aF7.091809347341866
aF7.367493764619187
aF7.659753480810703
aF7.969844870417697
aF8.299131170530377
aF8.649092209515466
aF9.021335282919633
aF9.417607454926765
aF9.839809669779209
aF10.77047918106273
aF11.283682161745238
aF11.832339132347448
aF12.419445754566578
aF13.048322335932355
aF13.72267287581258
aa(lp128
g6
(g10
S'\xb6S\xd7\xd15\x12SB'
p129
tp130
Rp131
ag6
(g10
S'N\xa1\xb5\xf6\x95#wB'
p132
tp133
Rp134
ag6
(g10
S'O\x8e\xd7\xd1*_\x84B'
p135
tp136
Rp137
ag6
(g10
S'\xfb\x1f\x0cq\x8c\x08\x92B'
p138
tp139
Rp140
ag6
(g10
S'6\x89\xa7\xbf\xd1\xa3\x9fB'
p141
tp142
Rp143
ag6
(g10
S'a-*\xec-\xb1\xa6B'
p144
tp145
Rp146
ag6
(g10
S'\xb5\xa0{\xf5d\x00\xabB'
p147
tp148
Rp149
ag6
(g10
S'\x05\xa9\x88@3X\xb1B'
p150
tp151
Rp152
ag6
(g10
S'\x03\xd4\x88$i\xf6\xb5B'
p153
tp154
Rp155
ag6
(g10
S'I\xb6\xb2\x9epy\xb9B'
p156
tp157
Rp158
ag6
(g10
S'\xa5f%\xc6y\\\xbfB'
p159
tp160
Rp161
ag6
(g10
S'\xa5\x05tt\x14\xbd\xc0B'
p162
tp163
Rp164
ag6
(g10
S'J\xc0M\xbf\xf8\xd4\xc1B'
p165
tp166
Rp167
ag6
(g10
S'\x01~`\xd7_\xf5\xc2B'
p168
tp169
Rp170
ag6
(g10
S'r\x86*\xcf\xb6\x1d\xc4B'
p171
tp172
Rp173
ag6
(g10
S'\x16Vh\xfdaM\xc5B'
p174
tp175
Rp176
ag6
(g10
S'\xf0\x11\x11<\xbb\x83\xc6B'
p177
tp178
Rp179
ag6
(g10
S"'\xff\xafo\r\xc0\xc7B"
p180
tp181
Rp182
ag6
(g10
S'/\xda\x13\xbe\x8c\x01\xc9B'
p183
tp184
Rp185
ag6
(g10
S'/\x8bQ\x18KG\xcaB'
p186
tp187
Rp188
ag6
(g10
S'\x9d9R*)\x90\xcbB'
p189
tp190
Rp191
ag6
(g10
S'\x82"\xf3k\xc4\xda\xccB'
p192
tp193
Rp194
ag6
(g10
S'_\xfd\x8a\xf7c%\xceB'
p195
tp196
Rp197
ag6
(g10
S'\x98n8\xdf\xe6m\xcfB'
p198
tp199
Rp200
ag6
(g10
S'\xaf\x8bK\xe5\xdbX\xd0B'
p201
tp202
Rp203
ag6
(g10
S'uh\xcf#\xe5\xf6\xd0B'
p204
tp205
Rp206
ag6
(g10
S'\xc6\xdc\xfb\xddR\x8f\xd1B'
p207
tp208
Rp209
ag6
(g10
S'\xc8\xc4.\xae? \xd2B'
p210
tp211
Rp212
ag6
(g10
S"\x0e\x8b'\x90\xaf\xa7\xd2B"
p213
tp214
Rp215
ag6
(g10
S']\xd3\xc2\xa8\xa1#\xd3B'
p216
tp217
Rp218
ag6
(g10
S'\xefW\xe9\xdf\x16\x92\xd3B'
p219
tp220
Rp221
ag6
(g10
S'\xcc\xe4\xb0\xfb+>\xd4B'
p222
tp223
Rp224
ag6
(g10
S'\x17\xc9\xcd\x056w\xd4B'
p225
tp226
Rp227
ag6
(g10
S'\x15\x18\xb5\xa6\x9e\x9a\xd4B'
p228
tp229
Rp230
ag6
(g10
S'|L\x0e;\xb3\xab\xd4B'
p231
tp232
Rp233
ag6
(g10
S'\xc3?\x0f\xc85\xbe\xd4B'
p234
tp235
Rp236
ag6
(g10
S'<-\xbf,\x04\x15\xd5B'
p237
tp238
Rp239
aasS'65'
p240
(lp241
(lp242
I4
aF3.1
aF2.8
aF2.5
aF2.2
aF2.0
aF1.9
aF1.75
aF1.6
aF1.5
aF1.35
aF1.3
aF1.25
aF1.2
aF1.15
aF1.1
aF1.05
aF1.0
aF0.95
aF0.9
aF0.85
aF0.8
aF0.75
aF0.7
aF0.65
aF0.6
aF0.55
aF0.5
aF0.45
aF0.4
aF0.35
aF0.25
aF0.2
aF0.15
aF0.1
aF0.05
aF0.0
aa(lp243
F1.5653765630627112
aF2.1031934843948874
aF2.3537762933734876
aF2.657551371158382
aF3.0313849282867316
aF3.3310493797510357
aF3.499429854966967
aF3.77926305836623
aF4.097143118864512
aF4.333730325440996
aF4.732065258627027
aF4.87795254969059
aF5.031116232331891
aF5.192041168142514
aF5.361250965874437
aF5.539311395626737
aF5.72683410698751
aF5.924480675664365
aF6.132967004986563
aF6.353068110967609
aF6.585623322660601
aF6.831541933750815
aF7.091809347341866
aF7.367493764619187
aF7.659753480810703
aF7.969844870417697
aF8.299131170530377
aF8.649092209515466
aF9.021335282919633
aF9.417607454926765
aF9.839809669779209
aF10.77047918106273
aF11.283682161745238
aF11.832339132347448
aF12.419445754566578
aF13.048322335932355
aF13.72267287581258
aa(lp244
g6
(g10
S'\xe3\x02\xd2\xa2\x0c7pB'
p245
tp246
Rp247
ag6
(g10
S'&(%\x95%\x8f~B'
p248
tp249
Rp250
ag6
(g10
S'\xbd\xa3\x9e\xce\xf7s\x83B'
p251
tp252
Rp253
ag6
(g10
S'\xfdO\xa5\xff\xae0\x89B'
p254
tp255
Rp256
ag6
(g10
S'\x98\xdfF\xf2\xc8\x9d\x90B'
p257
tp258
Rp259
ag6
(g10
S'~\xca\x93\xd927\x94B'
p260
tp261
Rp262
ag6
(g10
S'\xa4\x7f\xaa\x13\xe8`\x96B'
p263
tp264
Rp265
ag6
(g10
S'\xa5<<\xb7//\x9aB'
p266
tp267
Rp268
ag6
(g10
S'\xadh\x94\x87\xcc\xcc\x9eB'
p269
tp270
Rp271
ag6
(g10
S'jZ.\xd4d4\xa1B'
p272
tp273
Rp274
ag6
(g10
S'\xe57\xb6\xf6\xa6^\xa4B'
p275
tp276
Rp277
ag6
(g10
S'\\<\x9b\xdaI\x8e\xa5B'
p278
tp279
Rp280
ag6
(g10
S'\xdb\xb3]\xd1#\xcf\xa6B'
p281
tp282
Rp283
ag6
(g10
S'\x05\x97\x02\xac\x0e!\xa8B'
p284
tp285
Rp286
ag6
(g10
S'h\x07\xcft\x83\x83\xa9B'
p287
tp288
Rp289
ag6
(g10
S'*C\xf9|\x87\xf5\xaaB'
p290
tp291
Rp292
ag6
(g10
S'\x00d\xe41\x9cu\xacB'
p293
tp294
Rp295
ag6
(g10
S'\xf5Oam\xb5\x01\xaeB'
p296
tp297
Rp298
ag6
(g10
S'\xe0\n\xfbJ;\x97\xafB'
p299
tp300
Rp301
ag6
(g10
S'\x04\x8c\xe8\xe8\x8e\x99\xb0B'
p302
tp303
Rp304
ag6
(g10
S'X\x94f\xcb\x00i\xb1B'
p305
tp306
Rp307
ag6
(g10
S'\xd4\x84\xdb%F8\xb2B'
p308
tp309
Rp310
ag6
(g10
S'\x18\xa8#\x1d\xeb\x05\xb3B'
p311
tp312
Rp313
ag6
(g10
S'D\xdb\x84\x86\x00\xd1\xb3B'
p314
tp315
Rp316
ag6
(g10
S'\xf2\x11\xd3\x0ev\x99\xb4B'
p317
tp318
Rp319
ag6
(g10
S'\xf3\x13q\xf9x`\xb5B'
p320
tp321
Rp322
ag6
(g10
S':\xb7]]\xc4(\xb6B'
p323
tp324
Rp325
ag6
(g10
S'5k\xd7b\xc3\xf6\xb6B'
p326
tp327
Rp328
ag6
(g10
S'dU[\x99T\xd0\xb7B'
p329
tp330
Rp331
ag6
(g10
S'\xb4\xc1\xa7\xda\xe4\xbb\xb8B'
p332
tp333
Rp334
ag6
(g10
S'\x1a\xd0Z\xecx\xbe\xb9B'
p335
tp336
Rp337
ag6
(g10
S'4F\n\x05\xc7\xfe\xbbB'
p338
tp339
Rp340
ag6
(g10
S'\x9c\xc4^]\xd3\x17\xbdB'
p341
tp342
Rp343
ag6
(g10
S'\xe4\xde\x0c\t\xa9\xf6\xbdB'
p344
tp345
Rp346
ag6
(g10
S'yv\xc3[1l\xbeB'
p347
tp348
Rp349
ag6
(g10
S'\xbb?\x16N\xb9\x80\xbeB'
p350
tp351
Rp352
ag6
(g10
S'h\xe0(\xa71\x01\xbfB'
p353
tp354
Rp355
aas.