(dp0
S'1'
p1
(lp2
(lp3
I4
aF3.1
aF2.8
aF2.5
aF2.2
aF2.0
aF1.9
aF1.75
aF1.6
aF1.5
aF1.35
aF1.3
aF1.25
aF1.2
aF1.15
aF1.1
aF1.05
aF1.0
aF0.95
aF0.9
aF0.85
aF0.8
aF0.75
aF0.7
aF0.65
aF0.6
aF0.55
aF0.5
aF0.45
aF0.4
aF0.35
aF0.25
aF0.2
aF0.15
aF0.1
aF0.05
aF0.0
aa(lp4
F1.5653765630627112
aF2.1031934843948874
aF2.3537762933734876
aF2.657551371158382
aF3.0313849282867316
aF3.3310493797510357
aF3.499429854966967
aF3.77926305836623
aF4.097143118864512
aF4.333730325440996
aF4.732065258627027
aF4.87795254969059
aF5.031116232331891
aF5.192041168142514
aF5.361250965874437
aF5.539311395626737
aF5.72683410698751
aF5.924480675664365
aF6.132967004986563
aF6.353068110967609
aF6.585623322660601
aF6.831541933750815
aF7.091809347341866
aF7.367493764619187
aF7.659753480810703
aF7.969844870417697
aF8.299131170530377
aF8.649092209515466
aF9.021335282919633
aF9.417607454926765
aF9.839809669779209
aF10.77047918106273
aF11.283682161745238
aF11.832339132347448
aF12.419445754566578
aF13.048322335932355
aF13.72267287581258
aa(lp5
F742000000000.0
aF3957400000000.0
aF5133600000000.0
aF11388000000000.0
aF13289000000000.0
aF13987000000000.0
aF17048000000000.0
aF17448000000000.0
aF21427000000000.0
aF22976000000000.0
aF25880000000000.0
aF26240000000000.0
aF26602000000000.0
aF26814000000000.0
aF29890000000000.0
aF29897000000000.0
aF30528000000000.0
aF31739000000000.0
aF33517000000000.0
aF34423000000000.0
aF35729000000000.0
aF38236000000000.0
aF38941000000000.0
aF40919000000000.0
aF40932000000000.0
aF41020000000000.0
aF40955000000000.0
aF41600000000000.0
aF42019000000000.0
aF45647000000000.0
aF68090000000000.0
aF67690000000000.0
aF66540000000000.0
aF66280000000000.0
aF64150000000000.0
aF101840000000000.0
aF109410000000000.0
aasS'51'
p6
(lp7
(lp8
I4
aF3.1
aF2.8
aF2.5
aF2.2
aF2.0
aF1.9
aF1.75
aF1.6
aF1.5
aF1.35
aF1.3
aF1.25
aF1.2
aF1.15
aF1.1
aF1.05
aF1.0
aF0.95
aF0.9
aF0.85
aF0.8
aF0.75
aF0.7
aF0.65
aF0.6
aF0.55
aF0.5
aF0.45
aF0.4
aF0.35
aF0.25
aF0.2
aF0.15
aF0.1
aF0.05
aF0.0
aa(lp9
F1.5653765630627112
aF2.1031934843948874
aF2.3537762933734876
aF2.657551371158382
aF3.0313849282867316
aF3.3310493797510357
aF3.499429854966967
aF3.77926305836623
aF4.097143118864512
aF4.333730325440996
aF4.732065258627027
aF4.87795254969059
aF5.031116232331891
aF5.192041168142514
aF5.361250965874437
aF5.539311395626737
aF5.72683410698751
aF5.924480675664365
aF6.132967004986563
aF6.353068110967609
aF6.585623322660601
aF6.831541933750815
aF7.091809347341866
aF7.367493764619187
aF7.659753480810703
aF7.969844870417697
aF8.299131170530377
aF8.649092209515466
aF9.021335282919633
aF9.417607454926765
aF9.839809669779209
aF10.77047918106273
aF11.283682161745238
aF11.832339132347448
aF12.419445754566578
aF13.048322335932355
aF13.72267287581258
aa(lp10
F327640000000.0
aF1425600000000.0
aF2703000000000.0
aF6887000000000.0
aF8676000000000.0
aF11285000000000.0
aF12503000000000.0
aF15675000000000.0
aF24919000000000.0
aF34688000000000.0
aF37914000000000.0
aF39447000000000.0
aF40429000000000.0
aF42082000000000.0
aF42601000000000.0
aF44331000000000.0
aF45423000000000.0
aF52116000000000.0
aF53358000000000.0
aF57218000000000.0
aF60704000000000.0
aF64520000000000.0
aF67050000000000.0
aF69580000000000.0
aF71850000000000.0
aF74790000000000.0
aF77680000000000.0
aF80130000000000.0
aF81760000000000.0
aF85240000000000.0
aF85350000000000.0
aF88510000000000.0
aF90420000000000.0
aF89780000000000.0
aF91010000000000.0
aF92000000000000.0
aF92720000000000.0
aasS'65'
p11
(lp12
(lp13
I4
aF3.1
aF2.8
aF2.5
aF2.2
aF2.0
aF1.9
aF1.75
aF1.6
aF1.5
aF1.35
aF1.3
aF1.25
aF1.2
aF1.15
aF1.1
aF1.05
aF1.0
aF0.95
aF0.9
aF0.85
aF0.8
aF0.75
aF0.7
aF0.65
aF0.6
aF0.55
aF0.5
aF0.45
aF0.4
aF0.35
aF0.25
aF0.2
aF0.15
aF0.1
aF0.05
aF0.0
aa(lp14
F1.5653765630627112
aF2.1031934843948874
aF2.3537762933734876
aF2.657551371158382
aF3.0313849282867316
aF3.3310493797510357
aF3.499429854966967
aF3.77926305836623
aF4.097143118864512
aF4.333730325440996
aF4.732065258627027
aF4.87795254969059
aF5.031116232331891
aF5.192041168142514
aF5.361250965874437
aF5.539311395626737
aF5.72683410698751
aF5.924480675664365
aF6.132967004986563
aF6.353068110967609
aF6.585623322660601
aF6.831541933750815
aF7.091809347341866
aF7.367493764619187
aF7.659753480810703
aF7.969844870417697
aF8.299131170530377
aF8.649092209515466
aF9.021335282919633
aF9.417607454926765
aF9.839809669779209
aF10.77047918106273
aF11.283682161745238
aF11.832339132347448
aF12.419445754566578
aF13.048322335932355
aF13.72267287581258
aa(lp15
F1114300000000.0
aF1810000000000.0
aF2307200000000.0
aF3105200000000.0
aF5858300000000.0
aF6745000000000.0
aF7038000000000.0
aF7792000000000.0
aF8278000000000.0
aF8619000000000.0
aF9165000000000.0
aF9429000000000.0
aF9761000000000.0
aF10082000000000.0
aF18618000000000.0
aF17066000000000.0
aF17701000000000.0
aF18402000000000.0
aF18928000000000.0
aF19480000000000.0
aF20234000000000.0
aF20568000000000.0
aF20911000000000.0
aF21230000000000.0
aF21610000000000.0
aF21900000000000.0
aF23190000000000.0
aF24021000000000.0
aF24857000000000.0
aF29258000000000.0
aF29774000000000.0
aF31533000000000.0
aF31756000000000.0
aF32547000000000.0
aF33092000000000.0
aF33579000000000.0
aF34090000000000.0
aas.